; Function Attrs: null_pointer_is_valid sspstrong uwtable
define internal void @dtap_cm_srvc_req_cont(ptr noundef %0, ptr noundef %1, ptr noundef %2, i32 noundef %3, i32 noundef %4, ptr noundef %5) #1 {
  %7 = tail call fastcc zeroext i16 @elem_tlv(ptr noundef %0, ptr noundef %1, ptr noundef %2, i32 noundef 13, i32 noundef %3, ptr noundef nonnull @.str.282, ptr noundef %5)
  %8 = zext i16 %7 to i32
  %9 = icmp eq i32 %4, %8
  br i1 %9, label %26, label %10

10:                                               ; preds = %6
  %11 = sub i32 %4, %8
  %12 = add i32 %3, %8
  %13 = tail call fastcc zeroext i16 @elem_tlv(ptr noundef %0, ptr noundef %1, ptr noundef %2, i32 noundef 12, i32 noundef %12, ptr noundef nonnull @.str.282, ptr noundef %5)
  %14 = zext i16 %13 to i32
  %15 = icmp eq i32 %11, %14
  br i1 %15, label %26, label %16

16:                                               ; preds = %10
  %17 = sub i32 %11, %14
  %18 = add i32 %12, %14
  %19 = tail call fastcc zeroext i16 @elem_tlv(ptr noundef %0, ptr noundef %1, ptr noundef %2, i32 noundef 83, i32 noundef %18, ptr noundef nonnull @.str.282, ptr noundef %5)
  %20 = zext i16 %19 to i32
  %21 = icmp eq i32 %17, %20
  br i1 %21, label %26, label %22

22:                                               ; preds = %16
  %23 = sub i32 %17, %20
  %24 = add i32 %18, %20
  %25 = tail call ptr @proto_tree_add_expert(ptr noundef %2, ptr noundef %1, ptr noundef nonnull @ei_ansi_a_extraneous_data, ptr noundef %0, i32 noundef %24, i32 noundef %23)
  br label %26

26:                                               ; preds = %16, %10, %6, %22
  ret void
}